target datalayout = "e-m:e-p270:32:32-p271:32:32-p272:64:64-i64:64-i128:128-f80:128-n8:16:32:64-S128"
target triple = "x86_64-pc-linux-gnu"

; Function Attrs: mustprogress nounwind uwtable
define noundef i32 @_ZN3net11MakeQuicTagEcccc(i8 noundef signext %0, i8 noundef signext %1, i8 noundef signext %2, i8 noundef signext %3) #1 {
  %5 = alloca i8, align 1
  %6 = alloca i8, align 1
  %7 = alloca i8, align 1
  %8 = alloca i8, align 1
  store i8 %0, ptr %5, align 1, !tbaa !110
  store i8 %1, ptr %6, align 1, !tbaa !110
  store i8 %2, ptr %7, align 1, !tbaa !110
  store i8 %3, ptr %8, align 1, !tbaa !110
  %9 = load i8, ptr %5, align 1, !tbaa !110
  %10 = sext i8 %9 to i32
  %11 = load i8, ptr %6, align 1, !tbaa !110
  %12 = sext i8 %11 to i32
  %13 = shl i32 %12, 8
  %14 = or i32 %10, %13
  %15 = load i8, ptr %7, align 1, !tbaa !110
  %16 = sext i8 %15 to i32
  %17 = shl i32 %16, 16
  %18 = or i32 %14, %17
  %19 = load i8, ptr %8, align 1, !tbaa !110
  %20 = sext i8 %19 to i32
  %21 = shl i32 %20, 24
  %22 = or i32 %18, %21
  ret i32 %22
}