; Function Attrs: mustprogress nofree norecurse nosync nounwind willreturn memory(none) uwtable
define noundef i32 @_ZN3net11MakeQuicTagEcccc(i8 noundef signext %0, i8 noundef signext %1, i8 noundef signext %2, i8 noundef signext %3) local_unnamed_addr #1 {
  %5 = sext i8 %0 to i32
  %6 = sext i8 %1 to i32
  %7 = shl nsw i32 %6, 8
  %8 = or i32 %7, %5
  %9 = sext i8 %2 to i32
  %10 = shl nsw i32 %9, 16
  %11 = or i32 %8, %10
  %12 = sext i8 %3 to i32
  %13 = shl nsw i32 %12, 24
  %14 = or i32 %11, %13
  ret i32 %14
}